; ModuleID = '37/933.c'
source_filename = "37/933.c"
target datalayout = "e-m:e-p270:32:32-p271:32:32-p272:64:64-i64:64-f80:128-n8:16:32:64-S128"
target triple = "x86_64-pc-linux-gnu"

@.str = private unnamed_addr constant [4 x i8] c"no\0A\00", align 1
@.str.1 = private unnamed_addr constant [4 x i8] c"%c\0A\00", align 1
@.str.2 = private unnamed_addr constant [4 x i8] c"%d\0A\00", align 1

; Function Attrs: noinline nounwind uwtable
define dso_local void @find(i8* %0) #0 {
  %2 = alloca i8*, align 8
  %3 = alloca i32, align 4
  %4 = alloca i32, align 4
  %5 = alloca i32, align 4
  %6 = alloca i32, align 4
  %7 = alloca i32, align 4
  %8 = alloca [26 x i32], align 16
  store i8* %0, i8** %2, align 8
  store i32 0, i32* %7, align 4
  %9 = bitcast [26 x i32]* %8 to i8*
  call void @llvm.memset.p0i8.i64(i8* align 16 %9, i8 0, i64 104, i1 false)
  %10 = load i8*, i8** %2, align 8
  %11 = call i64 @strlen(i8* %10) #4
  %12 = trunc i64 %11 to i32
  store i32 %12, i32* %6, align 4
  store i32 0, i32* %3, align 4
  br label %13

13:                                               ; preds = %81, %1
  %14 = load i32, i32* %3, align 4
  %15 = load i32, i32* %6, align 4
  %16 = icmp slt i32 %14, %15
  br i1 %16, label %17, label %84

17:                                               ; preds = %13
  %18 = load i8*, i8** %2, align 8
  %19 = load i32, i32* %3, align 4
  %20 = sext i32 %19 to i64
  %21 = getelementptr inbounds i8, i8* %18, i64 %20
  %22 = load i8, i8* %21, align 1
  %23 = sext i8 %22 to i32
  %24 = getelementptr inbounds [26 x i32], [26 x i32]* %8, i64 0, i64 0
  %25 = load i32, i32* %7, align 4
  %26 = sext i32 %25 to i64
  %27 = getelementptr inbounds i32, i32* %24, i64 %26
  store i32 %23, i32* %27, align 4
  %28 = load i32, i32* %7, align 4
  %29 = add nsw i32 %28, 1
  store i32 %29, i32* %7, align 4
  %30 = load i32, i32* %7, align 4
  %31 = icmp sgt i32 %30, 1
  br i1 %31, label %32, label %80

32:                                               ; preds = %17
  store i32 0, i32* %4, align 4
  br label %33

33:                                               ; preds = %76, %32
  %34 = load i32, i32* %4, align 4
  %35 = load i32, i32* %7, align 4
  %36 = sub nsw i32 %35, 1
  %37 = icmp slt i32 %34, %36
  br i1 %37, label %38, label %79

38:                                               ; preds = %33
  %39 = getelementptr inbounds [26 x i32], [26 x i32]* %8, i64 0, i64 0
  %40 = load i32, i32* %4, align 4
  %41 = sext i32 %40 to i64
  %42 = getelementptr inbounds i32, i32* %39, i64 %41
  %43 = load i32, i32* %42, align 4
  %44 = getelementptr inbounds [26 x i32], [26 x i32]* %8, i64 0, i64 0
  %45 = load i32, i32* %7, align 4
  %46 = sext i32 %45 to i64
  %47 = getelementptr inbounds i32, i32* %44, i64 %46
  %48 = getelementptr inbounds i32, i32* %47, i64 -1
  %49 = load i32, i32* %48, align 4
  %50 = icmp eq i32 %43, %49
  br i1 %50, label %51, label %75

51:                                               ; preds = %38
  %52 = load i32, i32* %4, align 4
  store i32 %52, i32* %5, align 4
  br label %53

53:                                               ; preds = %69, %51
  %54 = load i32, i32* %5, align 4
  %55 = load i32, i32* %7, align 4
  %56 = sub nsw i32 %55, 2
  %57 = icmp slt i32 %54, %56
  br i1 %57, label %58, label %72

58:                                               ; preds = %53
  %59 = getelementptr inbounds [26 x i32], [26 x i32]* %8, i64 0, i64 0
  %60 = load i32, i32* %5, align 4
  %61 = sext i32 %60 to i64
  %62 = getelementptr inbounds i32, i32* %59, i64 %61
  %63 = getelementptr inbounds i32, i32* %62, i64 1
  %64 = load i32, i32* %63, align 4
  %65 = getelementptr inbounds [26 x i32], [26 x i32]* %8, i64 0, i64 0
  %66 = load i32, i32* %5, align 4
  %67 = sext i32 %66 to i64
  %68 = getelementptr inbounds i32, i32* %65, i64 %67
  store i32 %64, i32* %68, align 4
  br label %69

69:                                               ; preds = %58
  %70 = load i32, i32* %5, align 4
  %71 = add nsw i32 %70, 1
  store i32 %71, i32* %5, align 4
  br label %53

72:                                               ; preds = %53
  %73 = load i32, i32* %7, align 4
  %74 = sub nsw i32 %73, 2
  store i32 %74, i32* %7, align 4
  br label %75

75:                                               ; preds = %72, %38
  br label %76

76:                                               ; preds = %75
  %77 = load i32, i32* %4, align 4
  %78 = add nsw i32 %77, 1
  store i32 %78, i32* %4, align 4
  br label %33

79:                                               ; preds = %33
  br label %80

80:                                               ; preds = %79, %17
  br label %81

81:                                               ; preds = %80
  %82 = load i32, i32* %3, align 4
  %83 = add nsw i32 %82, 1
  store i32 %83, i32* %3, align 4
  br label %13

84:                                               ; preds = %13
  %85 = load i32, i32* %7, align 4
  %86 = icmp eq i32 %85, 0
  br i1 %86, label %87, label %89

87:                                               ; preds = %84
  %88 = call i32 (i8*, ...) @printf(i8* getelementptr inbounds ([4 x i8], [4 x i8]* @.str, i64 0, i64 0))
  br label %93

89:                                               ; preds = %84
  %90 = getelementptr inbounds [26 x i32], [26 x i32]* %8, i64 0, i64 0
  %91 = load i32, i32* %90, align 16
  %92 = call i32 (i8*, ...) @printf(i8* getelementptr inbounds ([4 x i8], [4 x i8]* @.str.1, i64 0, i64 0), i32 %91)
  br label %93

93:                                               ; preds = %89, %87
  ret void
}

; Function Attrs: argmemonly nounwind willreturn
declare void @llvm.memset.p0i8.i64(i8* nocapture writeonly, i8, i64, i1 immarg) #1

; Function Attrs: nounwind readonly
declare dso_local i64 @strlen(i8*) #2

declare dso_local i32 @printf(i8*, ...) #3

; Function Attrs: noinline nounwind uwtable
define dso_local i32 @main() #0 {
  %1 = alloca i32, align 4
  %2 = alloca i32, align 4
  %3 = alloca i32, align 4
  %4 = alloca [100000 x i8], align 16
  store i32 0, i32* %1, align 4
  %5 = call i32 (i8*, ...) @__isoc99_scanf(i8* getelementptr inbounds ([4 x i8], [4 x i8]* @.str.2, i64 0, i64 0), i32* %2)
  store i32 0, i32* %3, align 4
  br label %6

6:                                                ; preds = %14, %0
  %7 = load i32, i32* %3, align 4
  %8 = load i32, i32* %2, align 4
  %9 = icmp slt i32 %7, %8
  br i1 %9, label %10, label %17

10:                                               ; preds = %6
  %11 = getelementptr inbounds [100000 x i8], [100000 x i8]* %4, i64 0, i64 0
  %12 = call i32 (i8*, ...) bitcast (i32 (...)* @gets to i32 (i8*, ...)*)(i8* %11)
  %13 = getelementptr inbounds [100000 x i8], [100000 x i8]* %4, i64 0, i64 0
  call void @find(i8* %13)
  br label %14

14:                                               ; preds = %10
  %15 = load i32, i32* %3, align 4
  %16 = add nsw i32 %15, 1
  store i32 %16, i32* %3, align 4
  br label %6

17:                                               ; preds = %6
  ret i32 0
}

declare dso_local i32 @__isoc99_scanf(i8*, ...) #3

declare dso_local i32 @gets(...) #3


!llvm.module.flags = !{!0}
!llvm.ident = !{!1}

!0 = !{i32 1, !"wchar_size", i32 4}
!1 = !{!"clang version 10.0.0-4ubuntu1 "}
